; ModuleID = '7/1004.c'
source_filename = "7/1004.c"
target datalayout = "e-m:e-p270:32:32-p271:32:32-p272:64:64-i64:64-f80:128-n8:16:32:64-S128"
target triple = "x86_64-pc-linux-gnu"

@.str = private unnamed_addr constant [3 x i8] c"%c\00", align 1
@.str.1 = private unnamed_addr constant [3 x i8] c"%s\00", align 1

; Function Attrs: noinline nounwind uwtable
define dso_local i32 @main() #0 {
  %1 = alloca i32, align 4
  %2 = alloca i32, align 4
  %3 = alloca i32, align 4
  %4 = alloca i32, align 4
  %5 = alloca i32, align 4
  %6 = alloca [300 x i8], align 16
  %7 = alloca [300 x i8], align 16
  %8 = alloca [300 x i8], align 16
  %9 = alloca i32, align 4
  %10 = alloca i32, align 4
  %11 = alloca i32, align 4
  %12 = alloca i32, align 4
  store i32 0, i32* %1, align 4
  store i32 -1, i32* %2, align 4
  store i32 -1, i32* %3, align 4
  store i32 -1, i32* %4, align 4
  store i32 0, i32* %5, align 4
  %13 = bitcast [300 x i8]* %6 to i8*
  call void @llvm.memset.p0i8.i64(i8* align 16 %13, i8 0, i64 300, i1 false)
  %14 = bitcast i8* %13 to <{ i8, [299 x i8] }>*
  %15 = getelementptr inbounds <{ i8, [299 x i8] }>, <{ i8, [299 x i8] }>* %14, i32 0, i32 0
  store i8 48, i8* %15, align 16
  %16 = bitcast [300 x i8]* %7 to i8*
  call void @llvm.memset.p0i8.i64(i8* align 16 %16, i8 0, i64 300, i1 false)
  %17 = bitcast i8* %16 to <{ i8, [299 x i8] }>*
  %18 = getelementptr inbounds <{ i8, [299 x i8] }>, <{ i8, [299 x i8] }>* %17, i32 0, i32 0
  store i8 48, i8* %18, align 16
  %19 = bitcast [300 x i8]* %8 to i8*
  call void @llvm.memset.p0i8.i64(i8* align 16 %19, i8 0, i64 300, i1 false)
  %20 = bitcast i8* %19 to <{ i8, [299 x i8] }>*
  %21 = getelementptr inbounds <{ i8, [299 x i8] }>, <{ i8, [299 x i8] }>* %20, i32 0, i32 0
  store i8 48, i8* %21, align 16
  store i32 0, i32* %11, align 4
  store i32 1, i32* %12, align 4
  store i32 0, i32* %9, align 4
  br label %22

22:                                               ; preds = %35, %0
  %23 = load i32, i32* %9, align 4
  %24 = sub nsw i32 %23, 1
  %25 = sext i32 %24 to i64
  %26 = getelementptr inbounds [300 x i8], [300 x i8]* %6, i64 0, i64 %25
  %27 = load i8, i8* %26, align 1
  %28 = sext i8 %27 to i32
  %29 = icmp ne i32 %28, 10
  br i1 %29, label %30, label %38

30:                                               ; preds = %22
  %31 = load i32, i32* %9, align 4
  %32 = sext i32 %31 to i64
  %33 = getelementptr inbounds [300 x i8], [300 x i8]* %6, i64 0, i64 %32
  %34 = call i32 (i8*, ...) @__isoc99_scanf(i8* getelementptr inbounds ([3 x i8], [3 x i8]* @.str, i64 0, i64 0), i8* %33)
  br label %35

35:                                               ; preds = %30
  %36 = load i32, i32* %9, align 4
  %37 = add nsw i32 %36, 1
  store i32 %37, i32* %9, align 4
  br label %22

38:                                               ; preds = %22
  store i32 0, i32* %9, align 4
  br label %39

39:                                               ; preds = %54, %38
  %40 = load i32, i32* %9, align 4
  %41 = sub nsw i32 %40, 1
  %42 = sext i32 %41 to i64
  %43 = getelementptr inbounds [300 x i8], [300 x i8]* %7, i64 0, i64 %42
  %44 = load i8, i8* %43, align 1
  %45 = sext i8 %44 to i32
  %46 = icmp ne i32 %45, 10
  br i1 %46, label %47, label %57

47:                                               ; preds = %39
  %48 = load i32, i32* %9, align 4
  %49 = sext i32 %48 to i64
  %50 = getelementptr inbounds [300 x i8], [300 x i8]* %7, i64 0, i64 %49
  %51 = call i32 (i8*, ...) @__isoc99_scanf(i8* getelementptr inbounds ([3 x i8], [3 x i8]* @.str, i64 0, i64 0), i8* %50)
  %52 = load i32, i32* %3, align 4
  %53 = add nsw i32 %52, 1
  store i32 %53, i32* %3, align 4
  br label %54

54:                                               ; preds = %47
  %55 = load i32, i32* %9, align 4
  %56 = add nsw i32 %55, 1
  store i32 %56, i32* %9, align 4
  br label %39

57:                                               ; preds = %39
  store i32 0, i32* %9, align 4
  br label %58

58:                                               ; preds = %73, %57
  %59 = load i32, i32* %9, align 4
  %60 = sub nsw i32 %59, 1
  %61 = sext i32 %60 to i64
  %62 = getelementptr inbounds [300 x i8], [300 x i8]* %8, i64 0, i64 %61
  %63 = load i8, i8* %62, align 1
  %64 = sext i8 %63 to i32
  %65 = icmp ne i32 %64, 10
  br i1 %65, label %66, label %76

66:                                               ; preds = %58
  %67 = load i32, i32* %9, align 4
  %68 = sext i32 %67 to i64
  %69 = getelementptr inbounds [300 x i8], [300 x i8]* %8, i64 0, i64 %68
  %70 = call i32 (i8*, ...) @__isoc99_scanf(i8* getelementptr inbounds ([3 x i8], [3 x i8]* @.str, i64 0, i64 0), i8* %69)
  %71 = load i32, i32* %4, align 4
  %72 = add nsw i32 %71, 1
  store i32 %72, i32* %4, align 4
  br label %73

73:                                               ; preds = %66
  %74 = load i32, i32* %9, align 4
  %75 = add nsw i32 %74, 1
  store i32 %75, i32* %9, align 4
  br label %58

76:                                               ; preds = %58
  store i32 0, i32* %9, align 4
  br label %77

77:                                               ; preds = %150, %76
  %78 = load i32, i32* %9, align 4
  %79 = sext i32 %78 to i64
  %80 = getelementptr inbounds [300 x i8], [300 x i8]* %6, i64 0, i64 %79
  %81 = load i8, i8* %80, align 1
  %82 = sext i8 %81 to i32
  %83 = icmp ne i32 %82, 0
  br i1 %83, label %84, label %153

84:                                               ; preds = %77
  %85 = load i32, i32* %9, align 4
  %86 = sext i32 %85 to i64
  %87 = getelementptr inbounds [300 x i8], [300 x i8]* %6, i64 0, i64 %86
  %88 = load i8, i8* %87, align 1
  %89 = sext i8 %88 to i32
  %90 = getelementptr inbounds [300 x i8], [300 x i8]* %7, i64 0, i64 0
  %91 = load i8, i8* %90, align 16
  %92 = sext i8 %91 to i32
  %93 = icmp eq i32 %89, %92
  br i1 %93, label %94, label %149

94:                                               ; preds = %84
  %95 = load i32, i32* %9, align 4
  store i32 %95, i32* %11, align 4
  store i32 1, i32* %12, align 4
  store i32 1, i32* %10, align 4
  br label %96

96:                                               ; preds = %116, %94
  %97 = load i32, i32* %10, align 4
  %98 = load i32, i32* %3, align 4
  %99 = icmp slt i32 %97, %98
  br i1 %99, label %100, label %119

100:                                              ; preds = %96
  %101 = load i32, i32* %10, align 4
  %102 = sext i32 %101 to i64
  %103 = getelementptr inbounds [300 x i8], [300 x i8]* %7, i64 0, i64 %102
  %104 = load i8, i8* %103, align 1
  %105 = sext i8 %104 to i32
  %106 = load i32, i32* %11, align 4
  %107 = load i32, i32* %10, align 4
  %108 = add nsw i32 %106, %107
  %109 = sext i32 %108 to i64
  %110 = getelementptr inbounds [300 x i8], [300 x i8]* %6, i64 0, i64 %109
  %111 = load i8, i8* %110, align 1
  %112 = sext i8 %111 to i32
  %113 = icmp ne i32 %105, %112
  br i1 %113, label %114, label %115

114:                                              ; preds = %100
  store i32 0, i32* %12, align 4
  br label %119

115:                                              ; preds = %100
  br label %116

116:                                              ; preds = %115
  %117 = load i32, i32* %10, align 4
  %118 = add nsw i32 %117, 1
  store i32 %118, i32* %10, align 4
  br label %96

119:                                              ; preds = %114, %96
  %120 = load i32, i32* %12, align 4
  %121 = icmp eq i32 %120, 1
  br i1 %121, label %122, label %144

122:                                              ; preds = %119
  %123 = load i32, i32* %11, align 4
  store i32 %123, i32* %9, align 4
  br label %124

124:                                              ; preds = %140, %122
  %125 = load i32, i32* %9, align 4
  %126 = load i32, i32* %11, align 4
  %127 = load i32, i32* %3, align 4
  %128 = add nsw i32 %126, %127
  %129 = icmp slt i32 %125, %128
  br i1 %129, label %130, label %143

130:                                              ; preds = %124
  %131 = load i32, i32* %9, align 4
  %132 = load i32, i32* %11, align 4
  %133 = sub nsw i32 %131, %132
  %134 = sext i32 %133 to i64
  %135 = getelementptr inbounds [300 x i8], [300 x i8]* %8, i64 0, i64 %134
  %136 = load i8, i8* %135, align 1
  %137 = load i32, i32* %9, align 4
  %138 = sext i32 %137 to i64
  %139 = getelementptr inbounds [300 x i8], [300 x i8]* %6, i64 0, i64 %138
  store i8 %136, i8* %139, align 1
  br label %140

140:                                              ; preds = %130
  %141 = load i32, i32* %9, align 4
  %142 = add nsw i32 %141, 1
  store i32 %142, i32* %9, align 4
  br label %124

143:                                              ; preds = %124
  store i32 1, i32* %5, align 4
  br label %144

144:                                              ; preds = %143, %119
  %145 = load i32, i32* %5, align 4
  %146 = icmp eq i32 %145, 1
  br i1 %146, label %147, label %148

147:                                              ; preds = %144
  br label %153

148:                                              ; preds = %144
  br label %149

149:                                              ; preds = %148, %84
  br label %150

150:                                              ; preds = %149
  %151 = load i32, i32* %9, align 4
  %152 = add nsw i32 %151, 1
  store i32 %152, i32* %9, align 4
  br label %77

153:                                              ; preds = %147, %77
  %154 = getelementptr inbounds [300 x i8], [300 x i8]* %6, i64 0, i64 0
  %155 = call i32 (i8*, ...) @printf(i8* getelementptr inbounds ([3 x i8], [3 x i8]* @.str.1, i64 0, i64 0), i8* %154)
  %156 = load i32, i32* %1, align 4
  ret i32 %156
}

; Function Attrs: argmemonly nounwind willreturn
declare void @llvm.memset.p0i8.i64(i8* nocapture writeonly, i8, i64, i1 immarg) #1

declare dso_local i32 @__isoc99_scanf(i8*, ...) #2

declare dso_local i32 @printf(i8*, ...) #2


!llvm.module.flags = !{!0}
!llvm.ident = !{!1}

!0 = !{i32 1, !"wchar_size", i32 4}
!1 = !{!"clang version 10.0.0-4ubuntu1 "}
